; Function Attrs: mustprogress nounwind uwtable
define internal fastcc void @_ZNSt11_Tuple_implILm3EJN8pybind116detail11type_casterINS0_7array_tIiLi16EEEvEENS2_IivEENS2_IZ30test_submodule_numpy_vectorizeRNS0_7module_EE11NonPODClassvEENS2_INS3_IdLi16EEEvEEEED2Ev(ptr nocapture noundef nonnull readonly align 8 dereferenceable(48) %0) unnamed_addr #0 align 2 personality ptr @__gxx_personality_v0 {
  %2 = getelementptr inbounds i8, ptr %0, i64 40
  %3 = load ptr, ptr %2, align 8
  %.not.i.i.i.i.i.i.i.i.i = icmp eq ptr %3, null
  br i1 %.not.i.i.i.i.i.i.i.i.i, label %_ZNSt10_Head_baseILm3EN8pybind116detail11type_casterINS0_7array_tIiLi16EEEvEELb0EED2Ev.exit, label %4

4:                                                ; preds = %1
  %5 = load i64, ptr %3, align 8
  %6 = add nsw i64 %5, -1
  store i64 %6, ptr %3, align 8
  %.not.i.i.i.i.i.i.i.i.i.i = icmp eq i64 %6, 0
  br i1 %.not.i.i.i.i.i.i.i.i.i.i, label %7, label %_ZNSt10_Head_baseILm3EN8pybind116detail11type_casterINS0_7array_tIiLi16EEEvEELb0EED2Ev.exit

7:                                                ; preds = %4
  invoke void @_Py_Dealloc(ptr noundef nonnull %3)
          to label %_ZNSt10_Head_baseILm3EN8pybind116detail11type_casterINS0_7array_tIiLi16EEEvEELb0EED2Ev.exit unwind label %8

8:                                                ; preds = %7
  %9 = landingpad { ptr, i32 }
          catch ptr null
  %10 = extractvalue { ptr, i32 } %9, 0
  tail call void @__clang_call_terminate(ptr %10) #26
  unreachable

_ZNSt10_Head_baseILm3EN8pybind116detail11type_casterINS0_7array_tIiLi16EEEvEELb0EED2Ev.exit: ; preds = %1, %4, %7
  %.val = load ptr, ptr %0, align 8
  %.not.i.i.i.i.i.i.i.i.i.i.i.i = icmp eq ptr %.val, null
  br i1 %.not.i.i.i.i.i.i.i.i.i.i.i.i, label %_ZNSt11_Tuple_implILm4EJN8pybind116detail11type_casterIivEENS2_IZ30test_submodule_numpy_vectorizeRNS0_7module_EE11NonPODClassvEENS2_INS0_7array_tIdLi16EEEvEEEED2Ev.exit, label %11

11:                                               ; preds = %_ZNSt10_Head_baseILm3EN8pybind116detail11type_casterINS0_7array_tIiLi16EEEvEELb0EED2Ev.exit
  %12 = load i64, ptr %.val, align 8
  %13 = add nsw i64 %12, -1
  store i64 %13, ptr %.val, align 8
  %.not.i.i.i.i.i.i.i.i.i.i.i.i.i = icmp eq i64 %13, 0
  br i1 %.not.i.i.i.i.i.i.i.i.i.i.i.i.i, label %14, label %_ZNSt11_Tuple_implILm4EJN8pybind116detail11type_casterIivEENS2_IZ30test_submodule_numpy_vectorizeRNS0_7module_EE11NonPODClassvEENS2_INS0_7array_tIdLi16EEEvEEEED2Ev.exit

14:                                               ; preds = %11
  invoke void @_Py_Dealloc(ptr noundef nonnull %.val)
          to label %_ZNSt11_Tuple_implILm4EJN8pybind116detail11type_casterIivEENS2_IZ30test_submodule_numpy_vectorizeRNS0_7module_EE11NonPODClassvEENS2_INS0_7array_tIdLi16EEEvEEEED2Ev.exit unwind label %15

15:                                               ; preds = %14
  %16 = landingpad { ptr, i32 }
          catch ptr null
  %17 = extractvalue { ptr, i32 } %16, 0
  tail call void @__clang_call_terminate(ptr %17) #26
  unreachable

_ZNSt11_Tuple_implILm4EJN8pybind116detail11type_casterIivEENS2_IZ30test_submodule_numpy_vectorizeRNS0_7module_EE11NonPODClassvEENS2_INS0_7array_tIdLi16EEEvEEEED2Ev.exit: ; preds = %_ZNSt10_Head_baseILm3EN8pybind116detail11type_casterINS0_7array_tIiLi16EEEvEELb0EED2Ev.exit, %11, %14
  ret void
}